target datalayout = "e-m:e-p270:32:32-p271:32:32-p272:64:64-i64:64-i128:128-f80:128-n8:16:32:64-S128"
target triple = "x86_64-pc-linux-gnu"

%struct.nk_allocator = type { %union.nk_handle, ptr, ptr }
%union.nk_handle = type { ptr }
%struct.nk_buffer = type { [2 x %struct.nk_buffer_marker], %struct.nk_allocator, i32, %struct.nk_memory, float, i64, i64, i64, i64 }
%struct.nk_buffer_marker = type { i32, i64 }
%struct.nk_memory = type { ptr, i64 }
%struct.nk_str = type { %struct.nk_buffer, i32 }

; Function Attrs: nounwind uwtable
define void @nk_str_remove_chars(ptr noundef %0, i32 noundef %1) #0 {
  %3 = alloca ptr, align 8
  %4 = alloca i32, align 4
  store ptr %0, ptr %3, align 8, !tbaa !107
  store i32 %1, ptr %4, align 4, !tbaa !13
  %5 = load ptr, ptr %3, align 8, !tbaa !107
  %6 = icmp ne ptr %5, null
  br i1 %6, label %7, label %18

7:                                                ; preds = %2
  %8 = load i32, ptr %4, align 4, !tbaa !13
  %9 = icmp slt i32 %8, 0
  br i1 %9, label %18, label %10

10:                                               ; preds = %7
  %11 = load i32, ptr %4, align 4, !tbaa !13
  %12 = sext i32 %11 to i64
  %13 = load ptr, ptr %3, align 8, !tbaa !107
  %14 = getelementptr inbounds nuw %struct.nk_str, ptr %13, i32 0, i32 0
  %15 = getelementptr inbounds nuw %struct.nk_buffer, ptr %14, i32 0, i32 5
  %16 = load i64, ptr %15, align 8, !tbaa !115
  %17 = icmp ugt i64 %12, %16
  br i1 %17, label %18, label %19

18:                                               ; preds = %10, %7, %2
  br label %40

19:                                               ; preds = %10
  %20 = load i32, ptr %4, align 4, !tbaa !13
  %21 = sext i32 %20 to i64
  %22 = load ptr, ptr %3, align 8, !tbaa !107
  %23 = getelementptr inbounds nuw %struct.nk_str, ptr %22, i32 0, i32 0
  %24 = getelementptr inbounds nuw %struct.nk_buffer, ptr %23, i32 0, i32 5
  %25 = load i64, ptr %24, align 8, !tbaa !115
  %26 = sub i64 %25, %21
  store i64 %26, ptr %24, align 8, !tbaa !115
  %27 = load ptr, ptr %3, align 8, !tbaa !107
  %28 = getelementptr inbounds nuw %struct.nk_str, ptr %27, i32 0, i32 0
  %29 = getelementptr inbounds nuw %struct.nk_buffer, ptr %28, i32 0, i32 3
  %30 = getelementptr inbounds nuw %struct.nk_memory, ptr %29, i32 0, i32 0
  %31 = load ptr, ptr %30, align 8, !tbaa !118
  %32 = load ptr, ptr %3, align 8, !tbaa !107
  %33 = getelementptr inbounds nuw %struct.nk_str, ptr %32, i32 0, i32 0
  %34 = getelementptr inbounds nuw %struct.nk_buffer, ptr %33, i32 0, i32 5
  %35 = load i64, ptr %34, align 8, !tbaa !115
  %36 = trunc i64 %35 to i32
  %37 = call i32 @nk_utf_len(ptr noundef %31, i32 noundef %36)
  %38 = load ptr, ptr %3, align 8, !tbaa !107
  %39 = getelementptr inbounds nuw %struct.nk_str, ptr %38, i32 0, i32 1
  store i32 %37, ptr %39, align 8, !tbaa !109
  br label %40

40:                                               ; preds = %19, %18
  ret void
}

; Function Attrs: nounwind uwtable
define void @nk_str_delete_chars(ptr noundef %0, i32 noundef %1, i32 noundef %2) #0 {
  %4 = alloca ptr, align 8
  %5 = alloca i32, align 4
  %6 = alloca i32, align 4
  %7 = alloca ptr, align 8
  %8 = alloca ptr, align 8
  store ptr %0, ptr %4, align 8, !tbaa !107
  store i32 %1, ptr %5, align 4, !tbaa !13
  store i32 %2, ptr %6, align 4, !tbaa !13
  %9 = load ptr, ptr %4, align 8, !tbaa !107
  %10 = icmp ne ptr %9, null
  br i1 %10, label %11, label %32

11:                                               ; preds = %3
  %12 = load i32, ptr %6, align 4, !tbaa !13
  %13 = icmp ne i32 %12, 0
  br i1 %13, label %14, label %32

14:                                               ; preds = %11
  %15 = load i32, ptr %5, align 4, !tbaa !13
  %16 = sext i32 %15 to i64
  %17 = load ptr, ptr %4, align 8, !tbaa !107
  %18 = getelementptr inbounds nuw %struct.nk_str, ptr %17, i32 0, i32 0
  %19 = getelementptr inbounds nuw %struct.nk_buffer, ptr %18, i32 0, i32 5
  %20 = load i64, ptr %19, align 8, !tbaa !115
  %21 = icmp ugt i64 %16, %20
  br i1 %21, label %32, label %22

22:                                               ; preds = %14
  %23 = load i32, ptr %5, align 4, !tbaa !13
  %24 = load i32, ptr %6, align 4, !tbaa !13
  %25 = add nsw i32 %23, %24
  %26 = sext i32 %25 to i64
  %27 = load ptr, ptr %4, align 8, !tbaa !107
  %28 = getelementptr inbounds nuw %struct.nk_str, ptr %27, i32 0, i32 0
  %29 = getelementptr inbounds nuw %struct.nk_buffer, ptr %28, i32 0, i32 5
  %30 = load i64, ptr %29, align 8, !tbaa !115
  %31 = icmp ugt i64 %26, %30
  br i1 %31, label %32, label %33

32:                                               ; preds = %22, %14, %11, %3
  br label %98

33:                                               ; preds = %22
  %34 = load i32, ptr %5, align 4, !tbaa !13
  %35 = load i32, ptr %6, align 4, !tbaa !13
  %36 = add nsw i32 %34, %35
  %37 = sext i32 %36 to i64
  %38 = load ptr, ptr %4, align 8, !tbaa !107
  %39 = getelementptr inbounds nuw %struct.nk_str, ptr %38, i32 0, i32 0
  %40 = getelementptr inbounds nuw %struct.nk_buffer, ptr %39, i32 0, i32 5
  %41 = load i64, ptr %40, align 8, !tbaa !115
  %42 = icmp ult i64 %37, %41
  br i1 %42, label %43, label %81

43:                                               ; preds = %33
  call void @llvm.lifetime.start.p0(i64 8, ptr %7) #10
  %44 = load ptr, ptr %4, align 8, !tbaa !107
  %45 = getelementptr inbounds nuw %struct.nk_str, ptr %44, i32 0, i32 0
  %46 = getelementptr inbounds nuw %struct.nk_buffer, ptr %45, i32 0, i32 3
  %47 = getelementptr inbounds nuw %struct.nk_memory, ptr %46, i32 0, i32 0
  %48 = load ptr, ptr %47, align 8, !tbaa !118
  %49 = load i32, ptr %5, align 4, !tbaa !13
  %50 = sext i32 %49 to i64
  %51 = getelementptr inbounds i8, ptr %48, i64 %50
  store ptr %51, ptr %7, align 8, !tbaa !26
  call void @llvm.lifetime.start.p0(i64 8, ptr %8) #10
  %52 = load ptr, ptr %4, align 8, !tbaa !107
  %53 = getelementptr inbounds nuw %struct.nk_str, ptr %52, i32 0, i32 0
  %54 = getelementptr inbounds nuw %struct.nk_buffer, ptr %53, i32 0, i32 3
  %55 = getelementptr inbounds nuw %struct.nk_memory, ptr %54, i32 0, i32 0
  %56 = load ptr, ptr %55, align 8, !tbaa !118
  %57 = load i32, ptr %5, align 4, !tbaa !13
  %58 = load i32, ptr %6, align 4, !tbaa !13
  %59 = add nsw i32 %57, %58
  %60 = sext i32 %59 to i64
  %61 = getelementptr inbounds i8, ptr %56, i64 %60
  store ptr %61, ptr %8, align 8, !tbaa !26
  %62 = load ptr, ptr %7, align 8, !tbaa !26
  %63 = load ptr, ptr %8, align 8, !tbaa !26
  %64 = load ptr, ptr %4, align 8, !tbaa !107
  %65 = getelementptr inbounds nuw %struct.nk_str, ptr %64, i32 0, i32 0
  %66 = getelementptr inbounds nuw %struct.nk_buffer, ptr %65, i32 0, i32 5
  %67 = load i64, ptr %66, align 8, !tbaa !115
  %68 = load i32, ptr %5, align 4, !tbaa !13
  %69 = load i32, ptr %6, align 4, !tbaa !13
  %70 = add nsw i32 %68, %69
  %71 = sext i32 %70 to i64
  %72 = sub i64 %67, %71
  %73 = call ptr @nk_memcopy(ptr noundef %62, ptr noundef %63, i64 noundef %72)
  %74 = load i32, ptr %6, align 4, !tbaa !13
  %75 = sext i32 %74 to i64
  %76 = load ptr, ptr %4, align 8, !tbaa !107
  %77 = getelementptr inbounds nuw %struct.nk_str, ptr %76, i32 0, i32 0
  %78 = getelementptr inbounds nuw %struct.nk_buffer, ptr %77, i32 0, i32 5
  %79 = load i64, ptr %78, align 8, !tbaa !115
  %80 = sub i64 %79, %75
  store i64 %80, ptr %78, align 8, !tbaa !115
  call void @llvm.lifetime.end.p0(i64 8, ptr %8) #10
  call void @llvm.lifetime.end.p0(i64 8, ptr %7) #10
  br label %84

81:                                               ; preds = %33
  %82 = load ptr, ptr %4, align 8, !tbaa !107
  %83 = load i32, ptr %6, align 4, !tbaa !13
  call void @nk_str_remove_chars(ptr noundef %82, i32 noundef %83)
  br label %84

84:                                               ; preds = %81, %43
  %85 = load ptr, ptr %4, align 8, !tbaa !107
  %86 = getelementptr inbounds nuw %struct.nk_str, ptr %85, i32 0, i32 0
  %87 = getelementptr inbounds nuw %struct.nk_buffer, ptr %86, i32 0, i32 3
  %88 = getelementptr inbounds nuw %struct.nk_memory, ptr %87, i32 0, i32 0
  %89 = load ptr, ptr %88, align 8, !tbaa !118
  %90 = load ptr, ptr %4, align 8, !tbaa !107
  %91 = getelementptr inbounds nuw %struct.nk_str, ptr %90, i32 0, i32 0
  %92 = getelementptr inbounds nuw %struct.nk_buffer, ptr %91, i32 0, i32 5
  %93 = load i64, ptr %92, align 8, !tbaa !115
  %94 = trunc i64 %93 to i32
  %95 = call i32 @nk_utf_len(ptr noundef %89, i32 noundef %94)
  %96 = load ptr, ptr %4, align 8, !tbaa !107
  %97 = getelementptr inbounds nuw %struct.nk_str, ptr %96, i32 0, i32 1
  store i32 %95, ptr %97, align 8, !tbaa !109
  br label %98

98:                                               ; preds = %84, %32
  ret void
}