; Function Attrs: nofree norecurse nosync nounwind memory(readwrite, inaccessiblemem: none) uwtable
define void @nk_str_delete_chars(ptr noundef captures(address_is_null) %0, i32 noundef %1, i32 noundef %2) local_unnamed_addr #20 {
  %4 = icmp ne ptr %0, null
  %5 = icmp ne i32 %2, 0
  %or.cond = and i1 %4, %5
  br i1 %or.cond, label %6, label %45

6:                                                ; preds = %3
  %7 = sext i32 %1 to i64
  %8 = getelementptr inbounds nuw i8, ptr %0, i64 88
  %9 = load i64, ptr %8, align 8, !tbaa !75
  %10 = icmp ult i64 %9, %7
  br i1 %10, label %45, label %11

11:                                               ; preds = %6
  %12 = add nsw i32 %2, %1
  %13 = sext i32 %12 to i64
  %14 = icmp ult i64 %9, %13
  br i1 %14, label %45, label %15

15:                                               ; preds = %11
  %16 = icmp ugt i64 %9, %13
  br i1 %16, label %17, label %27

17:                                               ; preds = %15
  %18 = getelementptr inbounds nuw i8, ptr %0, i64 64
  %19 = load ptr, ptr %18, align 8, !tbaa !78
  %20 = getelementptr inbounds i8, ptr %19, i64 %7
  %21 = getelementptr inbounds i8, ptr %19, i64 %13
  %22 = sub nuw i64 %9, %13
  %23 = tail call fastcc ptr @nk_memcopy(ptr noundef %20, ptr noundef %21, i64 noundef %22)
  %24 = sext i32 %2 to i64
  %25 = load i64, ptr %8, align 8, !tbaa !75
  %26 = sub i64 %25, %24
  store i64 %26, ptr %8, align 8, !tbaa !75
  br label %nk_str_remove_chars.exit

27:                                               ; preds = %15
  %28 = icmp slt i32 %2, 0
  br i1 %28, label %nk_str_remove_chars.exit, label %29

29:                                               ; preds = %27
  %30 = zext nneg i32 %2 to i64
  %31 = icmp ult i64 %9, %30
  br i1 %31, label %nk_str_remove_chars.exit, label %32

32:                                               ; preds = %29
  %33 = sub nuw i64 %9, %30
  store i64 %33, ptr %8, align 8, !tbaa !75
  %34 = getelementptr inbounds nuw i8, ptr %0, i64 64
  %35 = load ptr, ptr %34, align 8, !tbaa !78
  %36 = trunc i64 %33 to i32
  %37 = tail call i32 @nk_utf_len(ptr noundef %35, i32 noundef %36)
  %38 = getelementptr inbounds nuw i8, ptr %0, i64 120
  store i32 %37, ptr %38, align 8, !tbaa !69
  br label %nk_str_remove_chars.exit

nk_str_remove_chars.exit:                         ; preds = %32, %29, %27, %17
  %39 = phi i64 [ %33, %32 ], [ %9, %29 ], [ %9, %27 ], [ %26, %17 ]
  %40 = getelementptr inbounds nuw i8, ptr %0, i64 64
  %41 = load ptr, ptr %40, align 8, !tbaa !78
  %42 = trunc i64 %39 to i32
  %43 = tail call i32 @nk_utf_len(ptr noundef %41, i32 noundef %42)
  %44 = getelementptr inbounds nuw i8, ptr %0, i64 120
  store i32 %43, ptr %44, align 8, !tbaa !69
  br label %45

45:                                               ; preds = %3, %6, %11, %nk_str_remove_chars.exit
  ret void
}